target datalayout = "e-m:e-p270:32:32-p271:32:32-p272:64:64-i64:64-i128:128-f80:128-n8:16:32:64-S128"
target triple = "x86_64-pc-linux-gnu"

%struct.s_mmfile = type { ptr, i64 }
%struct.object_id = type { [32 x i8], i32 }

@.str.4 = private unnamed_addr constant [1 x i8] zeroinitializer, align 1
@the_repository = external global ptr, align 8
@.str.5 = private unnamed_addr constant [30 x i8] c"unable to read blob object %s\00", align 1

; Function Attrs: inlinehint nounwind uwtable
define internal i32 @oideq(ptr noundef %0, ptr noundef %1) #6 {
  %3 = alloca ptr, align 8
  %4 = alloca ptr, align 8
  store ptr %0, ptr %3, align 8, !tbaa !57
  store ptr %1, ptr %4, align 8, !tbaa !57
  %5 = load ptr, ptr %3, align 8, !tbaa !57
  %6 = getelementptr inbounds nuw %struct.object_id, ptr %5, i32 0, i32 0
  %7 = getelementptr inbounds [32 x i8], ptr %6, i64 0, i64 0
  %8 = load ptr, ptr %4, align 8, !tbaa !57
  %9 = getelementptr inbounds nuw %struct.object_id, ptr %8, i32 0, i32 0
  %10 = getelementptr inbounds [32 x i8], ptr %9, i64 0, i64 0
  %11 = call i32 @memcmp(ptr noundef %7, ptr noundef %10, i64 noundef 32) #10
  %12 = icmp ne i32 %11, 0
  %13 = xor i1 %12, true
  %14 = zext i1 %13 to i32
  ret i32 %14
}

; Function Attrs: nounwind uwtable
define dso_local void @read_mmblob(ptr noundef %0, ptr noundef %1) #0 {
  %3 = alloca ptr, align 8
  %4 = alloca ptr, align 8
  %5 = alloca i64, align 8
  %6 = alloca i32, align 4
  %7 = alloca i32, align 4
  store ptr %0, ptr %3, align 8, !tbaa !4
  store ptr %1, ptr %4, align 8, !tbaa !57
  call void @llvm.lifetime.start.p0(i64 8, ptr %5) #9
  call void @llvm.lifetime.start.p0(i64 4, ptr %6) #9
  %8 = load ptr, ptr %4, align 8, !tbaa !57
  %9 = call ptr @null_oid()
  %10 = call i32 @oideq(ptr noundef %8, ptr noundef %9)
  %11 = icmp ne i32 %10, 0
  br i1 %11, label %12, label %18

12:                                               ; preds = %2
  %13 = call ptr @xstrdup(ptr noundef @.str.4)
  %14 = load ptr, ptr %3, align 8, !tbaa !4
  %15 = getelementptr inbounds nuw %struct.s_mmfile, ptr %14, i32 0, i32 0
  store ptr %13, ptr %15, align 8, !tbaa !27
  %16 = load ptr, ptr %3, align 8, !tbaa !4
  %17 = getelementptr inbounds nuw %struct.s_mmfile, ptr %16, i32 0, i32 1
  store i64 0, ptr %17, align 8, !tbaa !20
  store i32 1, ptr %7, align 4
  br label %38

18:                                               ; preds = %2
  %19 = load ptr, ptr @the_repository, align 8, !tbaa !59
  %20 = load ptr, ptr %4, align 8, !tbaa !57
  %21 = call ptr @repo_read_object_file(ptr noundef %19, ptr noundef %20, ptr noundef %6, ptr noundef %5)
  %22 = load ptr, ptr %3, align 8, !tbaa !4
  %23 = getelementptr inbounds nuw %struct.s_mmfile, ptr %22, i32 0, i32 0
  store ptr %21, ptr %23, align 8, !tbaa !27
  %24 = load ptr, ptr %3, align 8, !tbaa !4
  %25 = getelementptr inbounds nuw %struct.s_mmfile, ptr %24, i32 0, i32 0
  %26 = load ptr, ptr %25, align 8, !tbaa !27
  %27 = icmp ne ptr %26, null
  br i1 %27, label %28, label %31

28:                                               ; preds = %18
  %29 = load i32, ptr %6, align 4, !tbaa !25
  %30 = icmp ne i32 %29, 3
  br i1 %30, label %31, label %34

31:                                               ; preds = %28, %18
  %32 = load ptr, ptr %4, align 8, !tbaa !57
  %33 = call ptr @oid_to_hex(ptr noundef %32)
  call void (ptr, ...) @die(ptr noundef @.str.5, ptr noundef %33) #11
  unreachable

34:                                               ; preds = %28
  %35 = load i64, ptr %5, align 8, !tbaa !18
  %36 = load ptr, ptr %3, align 8, !tbaa !4
  %37 = getelementptr inbounds nuw %struct.s_mmfile, ptr %36, i32 0, i32 1
  store i64 %35, ptr %37, align 8, !tbaa !20
  store i32 0, ptr %7, align 4
  br label %38

38:                                               ; preds = %34, %12
  call void @llvm.lifetime.end.p0(i64 4, ptr %6) #9
  call void @llvm.lifetime.end.p0(i64 8, ptr %5) #9
  %39 = load i32, ptr %7, align 4
  switch i32 %39, label %41 [
    i32 0, label %40
    i32 1, label %40
  ]

40:                                               ; preds = %38, %38
  ret void

41:                                               ; preds = %38
  unreachable
}