; Function Attrs: nounwind uwtable
define dso_local void @read_mmblob(ptr noundef writeonly captures(none) initializes((0, 8)) %0, ptr noundef %1) local_unnamed_addr #0 {
  %3 = alloca i64, align 8
  %4 = alloca i32, align 4
  call void @llvm.lifetime.start.p0(i64 8, ptr nonnull %3) #13
  call void @llvm.lifetime.start.p0(i64 4, ptr nonnull %4) #13
  %5 = tail call ptr @null_oid() #13
  %bcmp.i = tail call i32 @bcmp(ptr noundef nonnull readonly dereferenceable(32) %1, ptr noundef nonnull readonly dereferenceable(32) %5, i64 32)
  %.not.i.not = icmp eq i32 %bcmp.i, 0
  br i1 %.not.i.not, label %6, label %8

6:                                                ; preds = %2
  %7 = tail call ptr @xstrdup(ptr noundef nonnull @.str.4) #13
  store ptr %7, ptr %0, align 8, !tbaa !17
  br label %18

8:                                                ; preds = %2
  %9 = load ptr, ptr @the_repository, align 8, !tbaa !44
  %10 = call ptr @repo_read_object_file(ptr noundef %9, ptr noundef nonnull %1, ptr noundef nonnull %4, ptr noundef nonnull %3) #13
  store ptr %10, ptr %0, align 8, !tbaa !17
  %11 = icmp eq ptr %10, null
  %12 = load i32, ptr %4, align 4
  %13 = icmp ne i32 %12, 3
  %or.cond = select i1 %11, i1 true, i1 %13
  br i1 %or.cond, label %14, label %16

14:                                               ; preds = %8
  %15 = call ptr @oid_to_hex(ptr noundef nonnull %1) #13
  call void (ptr, ...) @die(ptr noundef nonnull @.str.5, ptr noundef %15) #14
  unreachable

16:                                               ; preds = %8
  %17 = load i64, ptr %3, align 8, !tbaa !10
  br label %18

18:                                               ; preds = %16, %6
  %.sink = phi i64 [ %17, %16 ], [ 0, %6 ]
  %19 = getelementptr inbounds nuw i8, ptr %0, i64 8
  store i64 %.sink, ptr %19, align 8, !tbaa !12
  call void @llvm.lifetime.end.p0(i64 4, ptr nonnull %4) #13
  call void @llvm.lifetime.end.p0(i64 8, ptr nonnull %3) #13
  ret void
}